target datalayout = "e-m:e-p270:32:32-p271:32:32-p272:64:64-i64:64-i128:128-f80:128-n8:16:32:64-S128"
target triple = "x86_64-pc-linux-gnu"

%struct.expert_field = type { i32, i32 }
%struct._packet_info = type { ptr, ptr, i32, i32, %struct.nstime_t, %struct.nstime_t, %struct.nstime_t, i8, ptr, ptr, ptr, ptr, %struct._address, %struct._address, %struct._address, %struct._address, %struct._address, %struct._address, i32, ptr, i8, [3 x i8], %struct.anon, i32, i32, i32, i32, ptr, i8, ptr, ptr, i16, i16, i32, i32, i16, i32, i32, ptr, ptr, ptr, i8, i8, i16, i16, i16, i32, i16, i16, ptr, ptr, ptr, ptr, ptr, i32, i32 }
%struct.nstime_t = type { i64, i32 }
%struct._address = type { i32, i32, ptr, ptr }
%struct.anon = type { i8, [3 x i8] }

@ei_nas_5gs_missing_mandatory_element = internal global %struct.expert_field zeroinitializer, align 4
@.str.1644 = private unnamed_addr constant [1 x i8] zeroinitializer, align 1
@.str.1664 = private unnamed_addr constant [62 x i8] c"Missing Mandatory element %s%s, rest of dissection is suspect\00", align 1

; Function Attrs: null_pointer_is_valid sspstrong uwtable
define internal void @nas_5gs_updp_manage_ue_policy_cmd(ptr noundef %0, ptr noundef %1, ptr noundef %2, i32 noundef %3, i32 noundef %4) #0 {
  %6 = alloca ptr, align 8
  %7 = alloca ptr, align 8
  %8 = alloca ptr, align 8
  %9 = alloca i32, align 4
  %10 = alloca i32, align 4
  %11 = alloca i32, align 4
  %12 = alloca i32, align 4
  %13 = alloca i32, align 4
  %14 = alloca i32, align 4
  store ptr %0, ptr %6, align 8
  store ptr %1, ptr %7, align 8
  store ptr %2, ptr %8, align 8
  store i32 %3, ptr %9, align 4
  store i32 %4, ptr %10, align 4
  call void @llvm.lifetime.start.p0(i64 4, ptr %11) #11
  call void @llvm.lifetime.start.p0(i64 4, ptr %12) #11
  call void @llvm.lifetime.start.p0(i64 4, ptr %13) #11
  %15 = load i32, ptr %9, align 4
  store i32 %15, ptr %11, align 4
  %16 = load i32, ptr %10, align 4
  store i32 %16, ptr %13, align 4
  %17 = load ptr, ptr %8, align 8
  %18 = getelementptr inbounds nuw %struct._packet_info, ptr %17, i32 0, i32 46
  store i32 1, ptr %18, align 8
  %19 = load i32, ptr %13, align 4
  %20 = icmp sgt i32 %19, 0
  br i1 %20, label %21, label %37

21:                                               ; preds = %5
  %22 = load ptr, ptr %6, align 8
  %23 = load ptr, ptr %7, align 8
  %24 = load ptr, ptr %8, align 8
  %25 = load i32, ptr %11, align 4
  %26 = load i32, ptr %13, align 4
  %27 = call zeroext i16 @elem_lv_e(ptr noundef %22, ptr noundef %23, ptr noundef %24, i32 noundef 19, i32 noundef 0, i32 noundef %25, i32 noundef %26, ptr noundef null)
  %28 = zext i16 %27 to i32
  store i32 %28, ptr %12, align 4
  %29 = icmp ugt i32 %28, 0
  br i1 %29, label %30, label %37

30:                                               ; preds = %21
  %31 = load i32, ptr %12, align 4
  %32 = load i32, ptr %11, align 4
  %33 = add i32 %32, %31
  store i32 %33, ptr %11, align 4
  %34 = load i32, ptr %12, align 4
  %35 = load i32, ptr %13, align 4
  %36 = sub i32 %35, %34
  store i32 %36, ptr %13, align 4
  br label %44

37:                                               ; preds = %21, %5
  %38 = load ptr, ptr %7, align 8
  %39 = load ptr, ptr %8, align 8
  %40 = load ptr, ptr %6, align 8
  %41 = load i32, ptr %11, align 4
  %42 = call ptr @get_gsm_a_msg_string(i32 noundef 19, i32 noundef 0)
  %43 = call ptr (ptr, ptr, ptr, ptr, i32, i32, ptr, ...) @proto_tree_add_expert_format(ptr noundef %38, ptr noundef %39, ptr noundef @ei_nas_5gs_missing_mandatory_element, ptr noundef %40, i32 noundef %41, i32 noundef 0, ptr noundef @.str.1664, ptr noundef %42, ptr noundef @.str.1644)
  br label %44

44:                                               ; preds = %37, %30
  %45 = load i32, ptr %13, align 4
  %46 = icmp sle i32 %45, 0
  br i1 %46, label %47, label %48

47:                                               ; preds = %44
  store i32 1, ptr %14, align 4
  br label %65

48:                                               ; preds = %44
  %49 = load ptr, ptr %6, align 8
  %50 = load ptr, ptr %7, align 8
  %51 = load ptr, ptr %8, align 8
  %52 = load i32, ptr %11, align 4
  %53 = load i32, ptr %13, align 4
  %54 = call zeroext i16 @elem_tlv(ptr noundef %49, ptr noundef %50, ptr noundef %51, i8 noundef zeroext 66, i32 noundef 19, i32 noundef 5, i32 noundef %52, i32 noundef %53, ptr noundef null)
  %55 = zext i16 %54 to i32
  store i32 %55, ptr %12, align 4
  %56 = icmp ugt i32 %55, 0
  br i1 %56, label %57, label %64

57:                                               ; preds = %48
  %58 = load i32, ptr %12, align 4
  %59 = load i32, ptr %11, align 4
  %60 = add i32 %59, %58
  store i32 %60, ptr %11, align 4
  %61 = load i32, ptr %12, align 4
  %62 = load i32, ptr %13, align 4
  %63 = sub i32 %62, %61
  store i32 %63, ptr %13, align 4
  br label %64

64:                                               ; preds = %57, %48
  store i32 0, ptr %14, align 4
  br label %65

65:                                               ; preds = %64, %47
  call void @llvm.lifetime.end.p0(i64 4, ptr %13) #11
  call void @llvm.lifetime.end.p0(i64 4, ptr %12) #11
  call void @llvm.lifetime.end.p0(i64 4, ptr %11) #11
  %66 = load i32, ptr %14, align 4
  switch i32 %66, label %68 [
    i32 0, label %67
    i32 1, label %67
  ]

67:                                               ; preds = %65, %65
  ret void

68:                                               ; preds = %65
  unreachable
}