; Function Attrs: null_pointer_is_valid sspstrong uwtable
define internal void @nas_5gs_updp_manage_ue_policy_cmd(ptr noundef %0, ptr noundef %1, ptr noundef initializes((384, 388)) %2, i32 noundef %3, i32 noundef %4) #0 {
  %6 = getelementptr inbounds nuw i8, ptr %2, i64 384
  store i32 1, ptr %6, align 8
  %7 = icmp sgt i32 %4, 0
  br i1 %7, label %8, label %14

8:                                                ; preds = %5
  %9 = tail call zeroext i16 @elem_lv_e(ptr noundef %0, ptr noundef %1, ptr noundef %2, i32 noundef 19, i32 noundef 0, i32 noundef %3, i32 noundef %4, ptr noundef null)
  %.not = icmp eq i16 %9, 0
  br i1 %.not, label %14, label %10

10:                                               ; preds = %8
  %11 = zext i16 %9 to i32
  %12 = add i32 %3, %11
  %13 = sub nsw i32 %4, %11
  br label %17

14:                                               ; preds = %8, %5
  %15 = tail call ptr @get_gsm_a_msg_string(i32 noundef 19, i32 noundef 0)
  %16 = tail call ptr (ptr, ptr, ptr, ptr, i32, i32, ptr, ...) @proto_tree_add_expert_format(ptr noundef %1, ptr noundef %2, ptr noundef nonnull @ei_nas_5gs_missing_mandatory_element, ptr noundef %0, i32 noundef %3, i32 noundef 0, ptr noundef nonnull @.str.1664, ptr noundef %15, ptr noundef nonnull @.str.1644)
  br label %17

17:                                               ; preds = %14, %10
  %.026 = phi i32 [ %12, %10 ], [ %3, %14 ]
  %.0 = phi i32 [ %13, %10 ], [ %4, %14 ]
  %18 = icmp slt i32 %.0, 1
  br i1 %18, label %21, label %19

19:                                               ; preds = %17
  %20 = tail call zeroext i16 @elem_tlv(ptr noundef %0, ptr noundef %1, ptr noundef %2, i8 noundef zeroext 66, i32 noundef 19, i32 noundef 5, i32 noundef %.026, i32 noundef %.0, ptr noundef null)
  br label %21

21:                                               ; preds = %17, %19
  ret void
}